; Function Attrs: nounwind uwtable
define internal void @color_fill_picture(ptr noundef readonly captures(none) %0, ptr noundef %1) #1 {
  %3 = getelementptr inbounds nuw i8, ptr %0, i64 72
  %4 = load ptr, ptr %3, align 8, !tbaa !4
  %5 = getelementptr inbounds nuw i8, ptr %4, i64 112
  %6 = getelementptr inbounds nuw i8, ptr %4, i64 240
  %7 = getelementptr inbounds nuw i8, ptr %1, i64 64
  %8 = getelementptr inbounds nuw i8, ptr %4, i64 8
  %9 = load i32, ptr %8, align 8, !tbaa !36
  %10 = getelementptr inbounds nuw i8, ptr %4, i64 12
  %11 = load i32, ptr %10, align 4, !tbaa !37
  tail call void @ff_fill_rectangle(ptr noundef nonnull %5, ptr noundef nonnull %6, ptr noundef %1, ptr noundef nonnull %7, i32 noundef 0, i32 noundef 0, i32 noundef %9, i32 noundef %11) #20
  ret void
}